target datalayout = "e-m:e-p270:32:32-p271:32:32-p272:64:64-i64:64-i128:128-f80:128-n8:16:32:64-S128"
target triple = "x86_64-pc-linux-gnu"

%struct._9p_hashkey = type { i32, i16, i32 }
%struct._9p_hashval = type { i64, ptr }
%struct.conversation = type { ptr, ptr, ptr, i32, i32, i32, ptr, ptr, i32, ptr }

@_9p_hashtable = internal global ptr null, align 8

; Function Attrs: null_pointer_is_valid sspstrong uwtable
define internal void @_9p_hash_set(ptr noundef %0, i16 noundef zeroext %1, i32 noundef %2, ptr noundef %3) #0 {
  %5 = alloca ptr, align 8
  %6 = alloca i16, align 2
  %7 = alloca i32, align 4
  %8 = alloca ptr, align 8
  %9 = alloca ptr, align 8
  %10 = alloca ptr, align 8
  %11 = alloca ptr, align 8
  store ptr %0, ptr %5, align 8
  store i16 %1, ptr %6, align 2
  store i32 %2, ptr %7, align 4
  store ptr %3, ptr %8, align 8
  call void @llvm.lifetime.start.p0(i64 8, ptr %9) #7
  call void @llvm.lifetime.start.p0(i64 8, ptr %10) #7
  call void @llvm.lifetime.start.p0(i64 8, ptr %11) #7
  %12 = load ptr, ptr %5, align 8
  %13 = call ptr @find_or_create_conversation(ptr noundef %12)
  store ptr %13, ptr %11, align 8
  %14 = call ptr @wmem_file_scope()
  %15 = call noalias ptr @wmem_alloc(ptr noundef %14, i64 noundef 12) #9
  store ptr %15, ptr %9, align 8
  %16 = load ptr, ptr %11, align 8
  %17 = getelementptr inbounds nuw %struct.conversation, ptr %16, i32 0, i32 3
  %18 = load i32, ptr %17, align 8
  %19 = load ptr, ptr %9, align 8
  %20 = getelementptr inbounds nuw %struct._9p_hashkey, ptr %19, i32 0, i32 0
  store i32 %18, ptr %20, align 4
  %21 = load i16, ptr %6, align 2
  %22 = load ptr, ptr %9, align 8
  %23 = getelementptr inbounds nuw %struct._9p_hashkey, ptr %22, i32 0, i32 1
  store i16 %21, ptr %23, align 4
  %24 = load i32, ptr %7, align 4
  %25 = load ptr, ptr %9, align 8
  %26 = getelementptr inbounds nuw %struct._9p_hashkey, ptr %25, i32 0, i32 2
  store i32 %24, ptr %26, align 4
  %27 = load ptr, ptr @_9p_hashtable, align 8
  %28 = load ptr, ptr %9, align 8
  %29 = call ptr @wmem_map_lookup(ptr noundef %27, ptr noundef %28)
  store ptr %29, ptr %10, align 8
  %30 = load ptr, ptr %10, align 8
  %31 = icmp ne ptr %30, null
  br i1 %31, label %32, label %36

32:                                               ; preds = %4
  %33 = load ptr, ptr @_9p_hashtable, align 8
  %34 = load ptr, ptr %9, align 8
  %35 = call ptr @wmem_map_remove(ptr noundef %33, ptr noundef %34)
  br label %36

36:                                               ; preds = %32, %4
  %37 = load ptr, ptr @_9p_hashtable, align 8
  %38 = load ptr, ptr %9, align 8
  %39 = load ptr, ptr %8, align 8
  %40 = call ptr @wmem_map_insert(ptr noundef %37, ptr noundef %38, ptr noundef %39)
  call void @llvm.lifetime.end.p0(i64 8, ptr %11) #7
  call void @llvm.lifetime.end.p0(i64 8, ptr %10) #7
  call void @llvm.lifetime.end.p0(i64 8, ptr %9) #7
  ret void
}

; Function Attrs: null_pointer_is_valid sspstrong uwtable
define internal ptr @_9p_hash_new_val(i64 noundef %0) #0 {
  %2 = alloca i64, align 8
  %3 = alloca ptr, align 8
  store i64 %0, ptr %2, align 8
  call void @llvm.lifetime.start.p0(i64 8, ptr %3) #7
  %4 = call ptr @wmem_file_scope()
  %5 = call noalias ptr @wmem_alloc(ptr noundef %4, i64 noundef 16) #9
  store ptr %5, ptr %3, align 8
  %6 = call ptr @wmem_file_scope()
  %7 = load i64, ptr %2, align 8
  %8 = call noalias ptr @wmem_alloc(ptr noundef %6, i64 noundef %7) #9
  %9 = load ptr, ptr %3, align 8
  %10 = getelementptr inbounds nuw %struct._9p_hashval, ptr %9, i32 0, i32 1
  store ptr %8, ptr %10, align 8
  %11 = load i64, ptr %2, align 8
  %12 = load ptr, ptr %3, align 8
  %13 = getelementptr inbounds nuw %struct._9p_hashval, ptr %12, i32 0, i32 0
  store i64 %11, ptr %13, align 8
  %14 = load ptr, ptr %3, align 8
  call void @llvm.lifetime.end.p0(i64 8, ptr %3) #7
  ret ptr %14
}

; Function Attrs: null_pointer_is_valid sspstrong uwtable
define internal void @conv_set_version(ptr noundef %0, i32 noundef %1) #0 {
  %3 = alloca ptr, align 8
  %4 = alloca i32, align 4
  %5 = alloca ptr, align 8
  store ptr %0, ptr %3, align 8
  store i32 %1, ptr %4, align 4
  call void @llvm.lifetime.start.p0(i64 8, ptr %5) #7
  %6 = call ptr @_9p_hash_new_val(i64 noundef 4)
  store ptr %6, ptr %5, align 8
  %7 = load i32, ptr %4, align 4
  %8 = load ptr, ptr %5, align 8
  %9 = getelementptr inbounds nuw %struct._9p_hashval, ptr %8, i32 0, i32 1
  %10 = load ptr, ptr %9, align 8
  store i32 %7, ptr %10, align 4
  %11 = load ptr, ptr %3, align 8
  %12 = load ptr, ptr %5, align 8
  call void @_9p_hash_set(ptr noundef %11, i16 noundef zeroext -1, i32 noundef -1, ptr noundef %12)
  call void @llvm.lifetime.end.p0(i64 8, ptr %5) #7
  ret void
}