; Function Attrs: null_pointer_is_valid sspstrong uwtable
define internal fastcc void @conv_set_version(ptr noundef %0, i32 noundef range(i32 1, 5) %1) unnamed_addr #0 {
  %3 = tail call ptr @wmem_file_scope()
  %4 = tail call noalias dereferenceable_or_null(16) ptr @wmem_alloc(ptr noundef %3, i64 noundef 16) #10
  %5 = tail call ptr @wmem_file_scope()
  %6 = tail call noalias dereferenceable_or_null(4) ptr @wmem_alloc(ptr noundef %5, i64 noundef 4) #10
  %7 = getelementptr inbounds nuw i8, ptr %4, i64 8
  store ptr %6, ptr %7, align 8
  store i64 4, ptr %4, align 8
  store i32 %1, ptr %6, align 4
  %8 = tail call ptr @find_or_create_conversation(ptr noundef %0)
  %9 = tail call ptr @wmem_file_scope()
  %10 = tail call noalias dereferenceable_or_null(12) ptr @wmem_alloc(ptr noundef %9, i64 noundef 12) #10
  %11 = getelementptr inbounds nuw i8, ptr %8, i64 24
  %12 = load i32, ptr %11, align 8
  store i32 %12, ptr %10, align 4
  %13 = getelementptr inbounds nuw i8, ptr %10, i64 4
  store i16 -1, ptr %13, align 4
  %14 = getelementptr inbounds nuw i8, ptr %10, i64 8
  store i32 -1, ptr %14, align 4
  %15 = load ptr, ptr @_9p_hashtable, align 8
  %16 = tail call ptr @wmem_map_lookup(ptr noundef %15, ptr noundef %10)
  %.not.i = icmp eq ptr %16, null
  br i1 %.not.i, label %_9p_hash_set.exit, label %17

17:                                               ; preds = %2
  %18 = load ptr, ptr @_9p_hashtable, align 8
  %19 = tail call ptr @wmem_map_remove(ptr noundef %18, ptr noundef %10)
  br label %_9p_hash_set.exit

_9p_hash_set.exit:                                ; preds = %2, %17
  %20 = load ptr, ptr @_9p_hashtable, align 8
  %21 = tail call ptr @wmem_map_insert(ptr noundef %20, ptr noundef %10, ptr noundef %4)
  ret void
}